target datalayout = "e-m:e-p270:32:32-p271:32:32-p272:64:64-i64:64-i128:128-f80:128-n8:16:32:64-S128"
target triple = "x86_64-pc-linux-gnu"

%"class.icu_77::UMutex" = type { [40 x i8], %"struct.std::atomic", ptr }
%"struct.std::atomic" = type { %"struct.std::__atomic_base" }
%"struct.std::__atomic_base" = type { ptr }
%"class.icu_77::RuleBasedTimeZone" = type <{ %"class.icu_77::BasicTimeZone", ptr, ptr, ptr, ptr, i8, [7 x i8] }>
%"class.icu_77::BasicTimeZone" = type { %"class.icu_77::TimeZone" }
%"class.icu_77::TimeZone" = type { %"class.icu_77::UObject", %"class.icu_77::UnicodeString" }
%"class.icu_77::UObject" = type { ptr }
%"class.icu_77::UnicodeString" = type { %"class.icu_77::Replaceable", %"union.icu_77::UnicodeString::StackBufferOrFields" }
%"class.icu_77::Replaceable" = type { %"class.icu_77::UObject" }
%"union.icu_77::UnicodeString::StackBufferOrFields" = type { %struct.anon.0, [32 x i8] }
%struct.anon.0 = type { i16, i32, i32, ptr }

@_ZZNK6icu_7717RuleBasedTimeZone13completeConstER10UErrorCodeE5gLock = internal global %"class.icu_77::UMutex" zeroinitializer, align 8

; Function Attrs: inlinehint mustprogress nounwind uwtable
define internal noundef signext i8 @_ZL9U_FAILURE10UErrorCode(i32 noundef %0) #6 {
  %2 = alloca i32, align 4
  store i32 %0, ptr %2, align 4, !tbaa !26
  %3 = load i32, ptr %2, align 4, !tbaa !26
  %4 = icmp sgt i32 %3, 0
  %5 = zext i1 %4 to i8
  ret i8 %5
}

; Function Attrs: mustprogress uwtable
define void @_ZNK6icu_7717RuleBasedTimeZone13completeConstER10UErrorCode(ptr noundef nonnull align 8 dereferenceable(105) %0, ptr noundef nonnull align 4 dereferenceable(4) %1) #1 align 2 {
  %3 = alloca ptr, align 8
  %4 = alloca ptr, align 8
  %5 = alloca ptr, align 8
  store ptr %0, ptr %3, align 8, !tbaa !3
  store ptr %1, ptr %4, align 8, !tbaa !33
  %6 = load ptr, ptr %3, align 8
  %7 = load ptr, ptr %4, align 8, !tbaa !33
  %8 = load i32, ptr %7, align 4, !tbaa !26
  %9 = call noundef signext i8 @_ZL9U_FAILURE10UErrorCode(i32 noundef %8)
  %10 = icmp ne i8 %9, 0
  br i1 %10, label %11, label %12

11:                                               ; preds = %2
  br label %20

12:                                               ; preds = %2
  call void @umtx_lock_77(ptr noundef @_ZZNK6icu_7717RuleBasedTimeZone13completeConstER10UErrorCodeE5gLock)
  %13 = getelementptr inbounds nuw %"class.icu_77::RuleBasedTimeZone", ptr %6, i32 0, i32 5
  %14 = load i8, ptr %13, align 8, !tbaa !25
  %15 = icmp ne i8 %14, 0
  br i1 %15, label %19, label %16

16:                                               ; preds = %12
  call void @llvm.lifetime.start.p0(i64 8, ptr %5) #12
  store ptr %6, ptr %5, align 8, !tbaa !3
  %17 = load ptr, ptr %5, align 8, !tbaa !3
  %18 = load ptr, ptr %4, align 8, !tbaa !33
  call void @_ZN6icu_7717RuleBasedTimeZone8completeER10UErrorCode(ptr noundef nonnull align 8 dereferenceable(105) %17, ptr noundef nonnull align 4 dereferenceable(4) %18)
  call void @llvm.lifetime.end.p0(i64 8, ptr %5) #12
  br label %19

19:                                               ; preds = %16, %12
  call void @umtx_unlock_77(ptr noundef @_ZZNK6icu_7717RuleBasedTimeZone13completeConstER10UErrorCodeE5gLock)
  br label %20

20:                                               ; preds = %19, %11
  ret void
}

; Function Attrs: mustprogress uwtable
define noundef signext i8 @_ZNK6icu_7717RuleBasedTimeZone21getPreviousTransitionEdaRNS_18TimeZoneTransitionE(ptr noundef nonnull align 8 dereferenceable(105) %0, double noundef %1, i8 noundef signext %2, ptr noundef nonnull align 8 dereferenceable(32) %3) unnamed_addr #1 align 2 {
  %5 = alloca i8, align 1
  %6 = alloca ptr, align 8
  %7 = alloca double, align 8
  %8 = alloca i8, align 1
  %9 = alloca ptr, align 8
  %10 = alloca i32, align 4
  %11 = alloca i32, align 4
  %12 = alloca double, align 8
  %13 = alloca ptr, align 8
  %14 = alloca ptr, align 8
  %15 = alloca i8, align 1
  store ptr %0, ptr %6, align 8, !tbaa !3
  store double %1, ptr %7, align 8, !tbaa !36
  store i8 %2, ptr %8, align 1, !tbaa !43
  store ptr %3, ptr %9, align 8, !tbaa !105
  %16 = load ptr, ptr %6, align 8
  call void @llvm.lifetime.start.p0(i64 4, ptr %10) #12
  store i32 0, ptr %10, align 4, !tbaa !26
  call void @_ZNK6icu_7717RuleBasedTimeZone13completeConstER10UErrorCode(ptr noundef nonnull align 8 dereferenceable(105) %16, ptr noundef nonnull align 4 dereferenceable(4) %10)
  %17 = load i32, ptr %10, align 4, !tbaa !26
  %18 = call noundef signext i8 @_ZL9U_FAILURE10UErrorCode(i32 noundef %17)
  %19 = icmp ne i8 %18, 0
  br i1 %19, label %20, label %21

20:                                               ; preds = %4
  store i8 0, ptr %5, align 1
  store i32 1, ptr %11, align 4
  br label %36

21:                                               ; preds = %4
  call void @llvm.lifetime.start.p0(i64 8, ptr %12) #12
  call void @llvm.lifetime.start.p0(i64 8, ptr %13) #12
  call void @llvm.lifetime.start.p0(i64 8, ptr %14) #12
  call void @llvm.lifetime.start.p0(i64 1, ptr %15) #12
  %22 = load double, ptr %7, align 8, !tbaa !36
  %23 = load i8, ptr %8, align 1, !tbaa !43
  %24 = call noundef signext i8 @_ZNK6icu_7717RuleBasedTimeZone8findPrevEdaRdRPNS_12TimeZoneRuleES4_(ptr noundef nonnull align 8 dereferenceable(105) %16, double noundef %22, i8 noundef signext %23, ptr noundef nonnull align 8 dereferenceable(8) %12, ptr noundef nonnull align 8 dereferenceable(8) %13, ptr noundef nonnull align 8 dereferenceable(8) %14)
  store i8 %24, ptr %15, align 1, !tbaa !43
  %25 = load i8, ptr %15, align 1, !tbaa !43
  %26 = icmp ne i8 %25, 0
  br i1 %26, label %27, label %34

27:                                               ; preds = %21
  %28 = load ptr, ptr %9, align 8, !tbaa !105
  %29 = load double, ptr %12, align 8, !tbaa !36
  call void @_ZN6icu_7718TimeZoneTransition7setTimeEd(ptr noundef nonnull align 8 dereferenceable(32) %28, double noundef %29)
  %30 = load ptr, ptr %9, align 8, !tbaa !105
  %31 = load ptr, ptr %13, align 8, !tbaa !34
  call void @_ZN6icu_7718TimeZoneTransition7setFromERKNS_12TimeZoneRuleE(ptr noundef nonnull align 8 dereferenceable(32) %30, ptr noundef nonnull align 8 dereferenceable(80) %31)
  %32 = load ptr, ptr %9, align 8, !tbaa !105
  %33 = load ptr, ptr %14, align 8, !tbaa !34
  call void @_ZN6icu_7718TimeZoneTransition5setToERKNS_12TimeZoneRuleE(ptr noundef nonnull align 8 dereferenceable(32) %32, ptr noundef nonnull align 8 dereferenceable(80) %33)
  store i8 1, ptr %5, align 1
  store i32 1, ptr %11, align 4
  br label %35

34:                                               ; preds = %21
  store i8 0, ptr %5, align 1
  store i32 1, ptr %11, align 4
  br label %35

35:                                               ; preds = %34, %27
  call void @llvm.lifetime.end.p0(i64 1, ptr %15) #12
  call void @llvm.lifetime.end.p0(i64 8, ptr %14) #12
  call void @llvm.lifetime.end.p0(i64 8, ptr %13) #12
  call void @llvm.lifetime.end.p0(i64 8, ptr %12) #12
  br label %36

36:                                               ; preds = %35, %20
  call void @llvm.lifetime.end.p0(i64 4, ptr %10) #12
  %37 = load i8, ptr %5, align 1
  ret i8 %37
}